; Function Attrs: mustprogress nofree norecurse nosync nounwind willreturn memory(argmem: readwrite) uwtable
define void @ff_sws_matrix3x3_invert(ptr noundef captures(none) %0) local_unnamed_addr #3 {
  %2 = load float, ptr %0, align 4, !tbaa !4
  %3 = fpext nsz float %2 to double
  %4 = getelementptr inbounds nuw i8, ptr %0, i64 4
  %5 = load float, ptr %4, align 4, !tbaa !4
  %6 = fpext nsz float %5 to double
  %7 = getelementptr inbounds nuw i8, ptr %0, i64 8
  %8 = load float, ptr %7, align 4, !tbaa !4
  %9 = fpext nsz float %8 to double
  %10 = getelementptr inbounds nuw i8, ptr %0, i64 12
  %11 = load float, ptr %10, align 4, !tbaa !4
  %12 = fpext nsz float %11 to double
  %13 = getelementptr inbounds nuw i8, ptr %0, i64 16
  %14 = load float, ptr %13, align 4, !tbaa !4
  %15 = fpext nsz float %14 to double
  %16 = getelementptr inbounds nuw i8, ptr %0, i64 20
  %17 = load float, ptr %16, align 4, !tbaa !4
  %18 = fpext nsz float %17 to double
  %19 = getelementptr inbounds nuw i8, ptr %0, i64 24
  %20 = load float, ptr %19, align 4, !tbaa !4
  %21 = fpext nsz float %20 to double
  %22 = getelementptr inbounds nuw i8, ptr %0, i64 28
  %23 = load float, ptr %22, align 4, !tbaa !4
  %24 = fpext nsz float %23 to double
  %25 = getelementptr inbounds nuw i8, ptr %0, i64 32
  %26 = load float, ptr %25, align 4, !tbaa !4
  %27 = fpext nsz float %26 to double
  %28 = fneg nsz double %18
  %29 = fmul nsz double %28, %24
  %30 = tail call nsz double @llvm.fmuladd.f64(double %15, double %27, double %29)
  %31 = fneg nsz double %9
  %32 = fmul nsz double %31, %24
  %33 = tail call nsz double @llvm.fmuladd.f64(double %6, double %27, double %32)
  %34 = fneg nsz double %33
  %35 = fmul nsz double %31, %15
  %36 = tail call nsz double @llvm.fmuladd.f64(double %6, double %18, double %35)
  %37 = fmul nsz double %28, %21
  %38 = tail call nsz double @llvm.fmuladd.f64(double %12, double %27, double %37)
  %39 = fneg nsz double %38
  %40 = fmul nsz double %31, %21
  %41 = tail call nsz double @llvm.fmuladd.f64(double %3, double %27, double %40)
  %42 = fmul nsz double %31, %12
  %43 = tail call nsz double @llvm.fmuladd.f64(double %3, double %18, double %42)
  %44 = fneg nsz double %43
  %45 = fneg nsz double %15
  %46 = fmul nsz double %45, %21
  %47 = tail call nsz double @llvm.fmuladd.f64(double %12, double %24, double %46)
  %48 = fneg nsz double %6
  %49 = fmul nsz double %48, %21
  %50 = tail call nsz double @llvm.fmuladd.f64(double %3, double %24, double %49)
  %51 = fneg nsz double %50
  %52 = fmul nsz double %48, %12
  %53 = tail call nsz double @llvm.fmuladd.f64(double %3, double %15, double %52)
  %54 = fmul nsz double %12, %34
  %55 = tail call nsz double @llvm.fmuladd.f64(double %3, double %30, double %54)
  %56 = tail call nsz double @llvm.fmuladd.f64(double %21, double %36, double %55)
  %57 = fdiv nsz double 1.000000e+00, %56
  %58 = fmul nsz double %30, %57
  %59 = fptrunc nsz double %58 to float
  store float %59, ptr %0, align 4, !tbaa !4
  %60 = fmul nsz double %57, %34
  %61 = fptrunc nsz double %60 to float
  store float %61, ptr %4, align 4, !tbaa !4
  %62 = fmul nsz double %36, %57
  %63 = fptrunc nsz double %62 to float
  store float %63, ptr %7, align 4, !tbaa !4
  %64 = fmul nsz double %57, %39
  %65 = fptrunc nsz double %64 to float
  store float %65, ptr %10, align 4, !tbaa !4
  %66 = fmul nsz double %41, %57
  %67 = fptrunc nsz double %66 to float
  store float %67, ptr %13, align 4, !tbaa !4
  %68 = fmul nsz double %57, %44
  %69 = fptrunc nsz double %68 to float
  store float %69, ptr %16, align 4, !tbaa !4
  %70 = fmul nsz double %47, %57
  %71 = fptrunc nsz double %70 to float
  store float %71, ptr %19, align 4, !tbaa !4
  %72 = fmul nsz double %57, %51
  %73 = fptrunc nsz double %72 to float
  store float %73, ptr %22, align 4, !tbaa !4
  %74 = fmul nsz double %53, %57
  %75 = fptrunc nsz double %74 to float
  store float %75, ptr %25, align 4, !tbaa !4
  ret void
}